target datalayout = "e-m:e-p270:32:32-p271:32:32-p272:64:64-i64:64-i128:128-f80:128-n8:16:32:64-S128"
target triple = "x86_64-pc-linux-gnu"

%struct.pm_scope_node = type { %struct.pm_node, ptr, ptr, ptr, ptr, %struct.pm_constant_id_list_t, ptr, ptr, ptr, ptr, i32, ptr, ptr, i32, ptr }
%struct.pm_node = type { i16, i16, i32, %struct.pm_location_t }
%struct.pm_location_t = type { ptr, ptr }
%struct.pm_constant_id_list_t = type { i64, i64, ptr }
%struct.pm_parser = type { i32, i32, i32, i32, i32, i32, i32, %struct.anon.22, ptr, ptr, %struct.pm_token_t, %struct.pm_token_t, ptr, ptr, %struct.pm_list_t, %struct.pm_list_t, %struct.pm_location_t, %struct.pm_list_t, %struct.pm_list_t, ptr, ptr, ptr, ptr, ptr, ptr, ptr, %struct.pm_string_t, %struct.pm_constant_pool_t, %struct.pm_newline_list_t, i16, %struct.pm_string_t, i32, ptr, ptr, i32, i8, i8, i8, i8, i8, i8, i8, i8, i8, i8, i8, i8, i8 }
%struct.anon.22 = type { ptr, [4 x %struct.pm_lex_mode], i64 }
%struct.pm_lex_mode = type { i32, %union.anon.23, ptr }
%union.anon.23 = type { %struct.anon.27 }
%struct.anon.27 = type { %struct.pm_heredoc_lex_mode_t, ptr, ptr, i8 }
%struct.pm_heredoc_lex_mode_t = type { ptr, i64, i32, i32 }
%struct.pm_token_t = type { i32, ptr, ptr }
%struct.pm_list_t = type { i64, ptr, ptr }
%struct.pm_constant_pool_t = type { ptr, ptr, i32, i32 }
%struct.pm_newline_list_t = type { ptr, i64, i64, ptr }
%struct.pm_string_t = type { ptr, i64, i32 }

@COMPILE_OPTION_DEFAULT = internal global { i8, i8, [2 x i8], i32 } { i8 -37, i8 2, [2 x i8] zeroinitializer, i32 0 }, align 4

; Function Attrs: nounwind sspstrong uwtable
define internal i64 @iseq_setup_coverage(i64 noundef %0, i64 noundef %1, i32 noundef %2) #0 {
  %4 = alloca i64, align 8
  %5 = alloca i64, align 8
  %6 = alloca i64, align 8
  %7 = alloca i32, align 4
  %8 = alloca i32, align 4
  %9 = alloca i64, align 8
  store i64 %0, ptr %5, align 8, !tbaa !17
  store i64 %1, ptr %6, align 8, !tbaa !17
  store i32 %2, ptr %7, align 4, !tbaa !56
  %10 = load i32, ptr %7, align 4, !tbaa !56
  %11 = icmp sge i32 %10, 0
  br i1 %11, label %12, label %28

12:                                               ; preds = %3
  call void @llvm.lifetime.start.p0(i64 4, ptr %8) #24
  %13 = call i32 @rb_get_coverage_mode()
  %14 = and i32 %13, 8
  %15 = icmp ne i32 %14, 0
  br i1 %15, label %16, label %17

16:                                               ; preds = %12
  br label %19

17:                                               ; preds = %12
  %18 = load i32, ptr %7, align 4, !tbaa !56
  br label %19

19:                                               ; preds = %17, %16
  %20 = phi i32 [ 0, %16 ], [ %18, %17 ]
  store i32 %20, ptr %8, align 4, !tbaa !56
  call void @llvm.lifetime.start.p0(i64 8, ptr %9) #24
  %21 = load i32, ptr %8, align 4, !tbaa !56
  %22 = call i64 @rb_default_coverage(i32 noundef %21)
  store i64 %22, ptr %9, align 8, !tbaa !17
  %23 = load i64, ptr %5, align 8, !tbaa !17
  %24 = load i64, ptr %6, align 8, !tbaa !17
  %25 = load i64, ptr %9, align 8, !tbaa !17
  %26 = call i64 @rb_hash_aset(i64 noundef %23, i64 noundef %24, i64 noundef %25)
  %27 = load i64, ptr %9, align 8, !tbaa !17
  store i64 %27, ptr %4, align 8
  call void @llvm.lifetime.end.p0(i64 8, ptr %9) #24
  call void @llvm.lifetime.end.p0(i64 4, ptr %8) #24
  br label %29

28:                                               ; preds = %3
  store i64 4, ptr %4, align 8
  br label %29

29:                                               ; preds = %28, %19
  %30 = load i64, ptr %4, align 8
  ret i64 %30
}

; Function Attrs: inlinehint nounwind sspstrong willreturn memory(none) uwtable
define internal zeroext i1 @RB_TEST(i64 noundef %0) #7 {
  %2 = alloca i64, align 8
  store i64 %0, ptr %2, align 8, !tbaa !17
  %3 = load i64, ptr %2, align 8, !tbaa !17
  %4 = and i64 %3, -5
  %5 = icmp ne i64 %4, 0
  ret i1 %5
}

; Function Attrs: nounwind sspstrong uwtable
define hidden ptr @pm_iseq_new_eval(ptr noundef %0, i64 noundef %1, i64 noundef %2, i64 noundef %3, i32 noundef %4, ptr noundef %5, i32 noundef %6, ptr noundef %7) #0 {
  %9 = alloca ptr, align 8
  %10 = alloca i64, align 8
  %11 = alloca i64, align 8
  %12 = alloca i64, align 8
  %13 = alloca i32, align 4
  %14 = alloca ptr, align 8
  %15 = alloca i32, align 4
  %16 = alloca ptr, align 8
  %17 = alloca i64, align 8
  store ptr %0, ptr %9, align 8, !tbaa !178
  store i64 %1, ptr %10, align 8, !tbaa !17
  store i64 %2, ptr %11, align 8, !tbaa !17
  store i64 %3, ptr %12, align 8, !tbaa !17
  store i32 %4, ptr %13, align 4, !tbaa !56
  store ptr %5, ptr %14, align 8, !tbaa !7
  store i32 %6, ptr %15, align 4, !tbaa !56
  store ptr %7, ptr %16, align 8, !tbaa !139
  %18 = call i32 @rb_get_coverage_mode()
  %19 = and i32 %18, 16
  %20 = icmp ne i32 %19, 0
  br i1 %20, label %21, label %49

21:                                               ; preds = %8
  call void @llvm.lifetime.start.p0(i64 8, ptr %17) #24
  %22 = call i64 @rb_get_coverages()
  store i64 %22, ptr %17, align 8, !tbaa !17
  %23 = load i64, ptr %17, align 8, !tbaa !17
  %24 = call zeroext i1 @RB_TEST(i64 noundef %23) #28
  br i1 %24, label %25, label %48

25:                                               ; preds = %21
  %26 = load i64, ptr %11, align 8, !tbaa !17
  %27 = call zeroext i1 @RB_TEST(i64 noundef %26) #28
  br i1 %27, label %28, label %48

28:                                               ; preds = %25
  %29 = load i64, ptr %17, align 8, !tbaa !17
  %30 = load i64, ptr %11, align 8, !tbaa !17
  %31 = call i64 @rb_hash_has_key(i64 noundef %29, i64 noundef %30)
  %32 = call zeroext i1 @RB_TEST(i64 noundef %31) #28
  br i1 %32, label %48, label %33

33:                                               ; preds = %28
  %34 = load i64, ptr %17, align 8, !tbaa !17
  %35 = load i64, ptr %11, align 8, !tbaa !17
  %36 = load ptr, ptr %9, align 8, !tbaa !178
  %37 = getelementptr inbounds nuw %struct.pm_scope_node, ptr %36, i32 0, i32 6
  %38 = load ptr, ptr %37, align 8, !tbaa !180
  %39 = getelementptr inbounds nuw %struct.pm_parser, ptr %38, i32 0, i32 28
  %40 = getelementptr inbounds nuw %struct.pm_newline_list_t, ptr %39, i32 0, i32 1
  %41 = load i64, ptr %40, align 8, !tbaa !191
  %42 = sub i64 %41, 1
  %43 = trunc i64 %42 to i32
  %44 = load i32, ptr %13, align 4, !tbaa !56
  %45 = add i32 %43, %44
  %46 = sub i32 %45, 1
  %47 = call i64 @iseq_setup_coverage(i64 noundef %34, i64 noundef %35, i32 noundef %46)
  br label %48

48:                                               ; preds = %33, %28, %25, %21
  call void @llvm.lifetime.end.p0(i64 8, ptr %17) #24
  br label %49

49:                                               ; preds = %48, %8
  %50 = load ptr, ptr %9, align 8, !tbaa !178
  %51 = load i64, ptr %10, align 8, !tbaa !17
  %52 = load i64, ptr %11, align 8, !tbaa !17
  %53 = load i64, ptr %12, align 8, !tbaa !17
  %54 = load i32, ptr %13, align 4, !tbaa !56
  %55 = load ptr, ptr %14, align 8, !tbaa !7
  %56 = load i32, ptr %15, align 4, !tbaa !56
  %57 = load ptr, ptr %16, align 8, !tbaa !139
  %58 = call ptr @pm_iseq_new_with_opt(ptr noundef %50, i64 noundef %51, i64 noundef %52, i64 noundef %53, i32 noundef %54, ptr noundef %55, i32 noundef %56, i32 noundef 6, ptr noundef @COMPILE_OPTION_DEFAULT, ptr noundef %57)
  ret ptr %58
}