; Function Attrs: nounwind sspstrong uwtable
define hidden ptr @pm_iseq_new_eval(ptr noundef %0, i64 noundef %1, i64 noundef %2, i64 noundef %3, i32 noundef %4, ptr noundef %5, i32 noundef %6, ptr noundef %7) local_unnamed_addr #0 {
  %9 = tail call i32 @rb_get_coverage_mode() #20
  %10 = and i32 %9, 16
  %.not = icmp eq i32 %10, 0
  br i1 %.not, label %iseq_setup_coverage.exit, label %11

11:                                               ; preds = %8
  %12 = tail call i64 @rb_get_coverages() #20
  %13 = and i64 %12, -5
  %14 = icmp ne i64 %13, 0
  %15 = and i64 %2, -5
  %16 = icmp ne i64 %15, 0
  %or.cond = and i1 %16, %14
  br i1 %or.cond, label %17, label %iseq_setup_coverage.exit

17:                                               ; preds = %11
  %18 = tail call i64 @rb_hash_has_key(i64 noundef %12, i64 noundef %2) #20
  %19 = and i64 %18, -5
  %.not16 = icmp eq i64 %19, 0
  br i1 %.not16, label %20, label %iseq_setup_coverage.exit

20:                                               ; preds = %17
  %21 = getelementptr inbounds nuw i8, ptr %0, i64 80
  %22 = load ptr, ptr %21, align 8, !tbaa !183
  %23 = getelementptr inbounds nuw i8, ptr %22, i64 608
  %24 = load i64, ptr %23, align 8, !tbaa !195
  %25 = trunc i64 %24 to i32
  %26 = add i32 %4, -2
  %27 = add i32 %26, %25
  %28 = icmp sgt i32 %27, -1
  br i1 %28, label %29, label %iseq_setup_coverage.exit

29:                                               ; preds = %20
  %30 = tail call i32 @rb_get_coverage_mode() #20
  %31 = and i32 %30, 8
  %.not.i = icmp eq i32 %31, 0
  %32 = select i1 %.not.i, i32 %27, i32 0
  %33 = tail call i64 @rb_default_coverage(i32 noundef %32) #20
  %34 = tail call i64 @rb_hash_aset(i64 noundef %12, i64 noundef %2, i64 noundef %33) #20
  br label %iseq_setup_coverage.exit

iseq_setup_coverage.exit:                         ; preds = %29, %20, %11, %17, %8
  %35 = tail call ptr @pm_iseq_new_with_opt(ptr noundef %0, i64 noundef %1, i64 noundef %2, i64 noundef %3, i32 noundef %4, ptr noundef %5, i32 noundef %6, i32 noundef 6, ptr noundef nonnull @COMPILE_OPTION_DEFAULT, ptr noundef %7)
  ret ptr %35
}